target datalayout = "e-m:e-p270:32:32-p271:32:32-p272:64:64-i64:64-i128:128-f80:128-n8:16:32:64-S128"
target triple = "x86_64-pc-linux-gnu"

%struct._sapi_module_struct = type { ptr, ptr, ptr, ptr, ptr, ptr, ptr, ptr, ptr, ptr, ptr, ptr, ptr, ptr, ptr, ptr, ptr, ptr, ptr, ptr, ptr, ptr, ptr, ptr, i32, i32, ptr, ptr, ptr, ptr, ptr, ptr, i32, ptr, ptr, ptr }

@sapi_module = external global %struct._sapi_module_struct, align 8
@.str.119 = private unnamed_addr constant [45 x i8] c"<tr class=\22h\22><th colspan=\22%d\22>%s</th></tr>\0A\00", align 1
@.str.120 = private unnamed_addr constant [10 x i8] c"%*s%s%*s\0A\00", align 1
@.str.121 = private unnamed_addr constant [2 x i8] c" \00", align 1

; Function Attrs: nounwind uwtable
define void @php_info_print_table_colspan_header(i32 noundef %0, ptr noundef %1) #0 {
  %3 = alloca i32, align 4
  %4 = alloca ptr, align 8
  %5 = alloca i32, align 4
  store i32 %0, ptr %3, align 4
  store ptr %1, ptr %4, align 8
  %6 = load i32, ptr getelementptr inbounds (%struct._sapi_module_struct, ptr @sapi_module, i32 0, i32 32), align 8
  %7 = icmp ne i32 %6, 0
  br i1 %7, label %12, label %8

8:                                                ; preds = %2
  %9 = load i32, ptr %3, align 4
  %10 = load ptr, ptr %4, align 8
  %11 = call i32 (ptr, ...) @php_info_printf(ptr noundef @.str.119, i32 noundef %9, ptr noundef %10)
  br label %23

12:                                               ; preds = %2
  %13 = load ptr, ptr %4, align 8
  %14 = call i64 @strlen(ptr noundef %13) #9
  %15 = sub i64 74, %14
  %16 = trunc i64 %15 to i32
  store i32 %16, ptr %5, align 4
  %17 = load i32, ptr %5, align 4
  %18 = sdiv i32 %17, 2
  %19 = load ptr, ptr %4, align 8
  %20 = load i32, ptr %5, align 4
  %21 = sdiv i32 %20, 2
  %22 = call i32 (ptr, ...) @php_info_printf(ptr noundef @.str.120, i32 noundef %18, ptr noundef @.str.121, ptr noundef %19, i32 noundef %21, ptr noundef @.str.121)
  br label %23

23:                                               ; preds = %12, %8
  ret void
}