; Function Attrs: nounwind uwtable
define void @php_info_print_table_colspan_header(i32 noundef %0, ptr noundef %1) local_unnamed_addr #0 {
  %3 = load i32, ptr getelementptr inbounds (%struct._sapi_module_struct, ptr @sapi_module, i64 0, i32 32), align 8
  %.not = icmp eq i32 %3, 0
  br i1 %.not, label %4, label %5

4:                                                ; preds = %2
  tail call void (ptr, ...) @php_info_printf(ptr noundef nonnull @.str.119, i32 noundef %0, ptr noundef %1)
  br label %10

5:                                                ; preds = %2
  %6 = tail call i64 @strlen(ptr noundef nonnull dereferenceable(1) %1) #13
  %7 = trunc i64 %6 to i32
  %8 = sub i32 74, %7
  %9 = sdiv i32 %8, 2
  tail call void (ptr, ...) @php_info_printf(ptr noundef nonnull @.str.120, i32 noundef %9, ptr noundef nonnull @.str.121, ptr noundef %1, i32 noundef %9, ptr noundef nonnull @.str.121)
  br label %10

10:                                               ; preds = %5, %4
  ret void
}